(dp0
S'cookies'
p1
(dp2
S'wxloadtime'
p3
S'1499832802'
p4
sS'webwx_data_ticket'
p5
S'gScnpudtAl+PyJV4R6r+DEWB'
p6
sS'wxuin'
p7
S'3105127548'
p8
sS'login_frequency'
p9
S'2'
p10
sS'MM_WX_NOTIFY_STATE'
p11
S'1'
p12
sS'MM_WX_SOUND_STATE'
p13
g12
sS'webwx_auth_ticket'
p14
S'CIsBEJD1quMIGoABoIkqpgdqtj2I+Q4mfMcHZibPn1s09kDgWO+5n5d4Wq1RC/D3PAnQD/NTduKJGu6viMOCFYBzeR7kXYw+FCNVlPIShsSgOmyFgbkaYbFku2W2J3fOnR4qvbn3rDTwc55G5BnlGuAskk+QYgk1ThdYRCM67Gwtn8u27DWnSNtVmfU='
p15
sS'last_wxuin'
p16
S'556236533'
p17
sS'webwxuvid'
p18
S'c5745125b6993f7944b80119cb954b694c006516501f2fdb22bbbc64a11cae6d2e564a4d3350f3ce7614061c7ee84544'
p19
sS'wxpluginkey'
p20
S'1499606622'
p21
sS'wxsid'
p22
S'GhNxMR9XV7omsJvM'
p23
sS'mm_lang'
p24
S'zh_CN'
p25
ssS'version'
p26
S'1.3.8'
p27
sS'storage'
p28
(dp29
S'userName'
p30
V
p31
sS'lastInputUserName'
p32
NsS'memberList'
p33
ccopy_reg
_reconstructor
p34
(citchat.storage.templates
ContactList
p35
c__builtin__
list
p36
(lp37
g34
(citchat.storage.templates
User
p38
c__builtin__
dict
p39
(dp40
S'UserName'
p41
g31
sS'City'
p42
S''
p43
sS'DisplayName'
p44
g43
sS'UniFriend'
p45
I0
sS'OwnerUin'
p46
I0
sS'MemberList'
p47
g34
(g35
g36
(lp48
tp49
Rp50
I1
bsS'PYQuanPin'
p51
g31
sS'RemarkPYInitial'
p52
g31
sS'Uin'
p53
I0
sS'AppAccountFlag'
p54
I0
sS'VerifyFlag'
p55
I0
sS'Province'
p56
g43
sS'KeyWord'
p57
g43
sS'RemarkName'
p58
g31
sS'PYInitial'
p59
g31
sS'ChatRoomId'
p60
I0
sS'HideInputBarFlag'
p61
I0
sVHeadImgFlag
p62
I0
sS'EncryChatRoomId'
p63
g43
sS'AttrStatus'
p64
I0
sS'SnsFlag'
p65
I0
sS'MemberCount'
p66
I0
sVWebWxPluginSwitch
p67
I0
sS'Alias'
p68
g43
sS'Signature'
p69
g31
sS'ContactFlag'
p70
I0
sS'NickName'
p71
g31
sS'RemarkPYQuanPin'
p72
g31
sS'HeadImgUrl'
p73
g31
sS'Sex'
p74
I0
sS'StarFriend'
p75
I0
sS'Statues'
p76
I0
stp77
Rp78
I1
batp79
Rp80
I1
bsS'chatroomList'
p81
g34
(g35
g36
(lp82
tp83
Rp84
I1
bsS'nickName'
p85
g31
sS'mpList'
p86
g34
(g35
g36
(lp87
tp88
Rp89
I1
bssS'loginInfo'
p90
(dp91
S'SyncKey'
p92
(dp93
VCount
p94
I0
sVList
p95
(lp96
ssS'syncUrl'
p97
S'https://webpush.wx2.qq.com/cgi-bin/mmwebwx-bin'
p98
sS'skey'
p99
V@crypt_ee21cfb0_9e1e9b7f3a4fa0a59753e5d39db2e5f3
p100
sS'wxuin'
p101
V3105127548
p102
sS'synckey'
p103
g43
sS'url'
p104
Vhttps://wx2.qq.com/cgi-bin/mmwebwx-bin
p105
sS'pass_ticket'
p106
Va7vnJsRT842UwZLMOXxn2fJdeEbJRKqZni5XFeTACrCRpkS0u0xFVq8%2BWeYGvuis
p107
sS'wxsid'
p108
VGhNxMR9XV7omsJvM
p109
sS'User'
p110
g34
(g38
g39
(dp111
g41
g31
sg42
g43
sg44
g43
sg45
I0
sg47
g50
sg51
g31
sg52
g31
sg74
I0
sg54
I0
sg55
I0
sg56
g43
sg57
g43
sg58
g31
sg59
g31
sg60
I0
sg61
I0
sg62
I0
sg63
g43
sg64
I0
sg67
I0
sg65
I0
sg66
I0
sg46
I0
sg68
g43
sg69
g31
sg70
I0
sg71
g31
sg72
g31
sg73
g31
sg53
I0
sg75
I0
sg76
I0
stp112
Rp113
I1
bsS'InviteStartCount'
p114
I0
sS'fileUrl'
p115
S'https://file.wx2.qq.com/cgi-bin/mmwebwx-bin'
p116
sS'BaseRequest'
p117
(dp118
g53
g102
sS'Skey'
p119
g100
sS'DeviceID'
p120
g107
sS'Sid'
p121
g109
ssS'deviceid'
p122
S'e576159456599657'
p123
ss.